target datalayout = "e-m:e-p270:32:32-p271:32:32-p272:64:64-i64:64-i128:128-f80:128-n8:16:32:64-S128"
target triple = "x86_64-pc-linux-gnu"

; Function Attrs: inlinehint nounwind uwtable
define internal i32 @VP8LAddPixels(i32 noundef %0, i32 noundef %1) #2 {
  %3 = alloca i32, align 4
  %4 = alloca i32, align 4
  %5 = alloca i32, align 4
  %6 = alloca i32, align 4
  store i32 %0, ptr %3, align 4, !tbaa !8
  store i32 %1, ptr %4, align 4, !tbaa !8
  call void @llvm.lifetime.start.p0(i64 4, ptr %5) #8
  %7 = load i32, ptr %3, align 4, !tbaa !8
  %8 = and i32 %7, -16711936
  %9 = load i32, ptr %4, align 4, !tbaa !8
  %10 = and i32 %9, -16711936
  %11 = add i32 %8, %10
  store i32 %11, ptr %5, align 4, !tbaa !8
  call void @llvm.lifetime.start.p0(i64 4, ptr %6) #8
  %12 = load i32, ptr %3, align 4, !tbaa !8
  %13 = and i32 %12, 16711935
  %14 = load i32, ptr %4, align 4, !tbaa !8
  %15 = and i32 %14, 16711935
  %16 = add i32 %13, %15
  store i32 %16, ptr %6, align 4, !tbaa !8
  %17 = load i32, ptr %5, align 4, !tbaa !8
  %18 = and i32 %17, -16711936
  %19 = load i32, ptr %6, align 4, !tbaa !8
  %20 = and i32 %19, 16711935
  %21 = or i32 %18, %20
  call void @llvm.lifetime.end.p0(i64 4, ptr %6) #8
  call void @llvm.lifetime.end.p0(i64 4, ptr %5) #8
  ret i32 %21
}

; Function Attrs: nounwind uwtable
define hidden i32 @VP8LPredictor4_C(ptr noundef %0, ptr noundef %1) #0 {
  %3 = alloca ptr, align 8
  %4 = alloca ptr, align 8
  store ptr %0, ptr %3, align 8, !tbaa !3
  store ptr %1, ptr %4, align 8, !tbaa !3
  %5 = load ptr, ptr %4, align 8, !tbaa !3
  %6 = getelementptr inbounds i32, ptr %5, i64 -1
  %7 = load i32, ptr %6, align 4, !tbaa !8
  ret i32 %7
}

; Function Attrs: nounwind uwtable
define internal void @PredictorAdd4_C(ptr noundef %0, ptr noundef %1, i32 noundef %2, ptr noalias noundef %3) #0 {
  %5 = alloca ptr, align 8
  %6 = alloca ptr, align 8
  %7 = alloca i32, align 4
  %8 = alloca ptr, align 8
  %9 = alloca i32, align 4
  %10 = alloca i32, align 4
  store ptr %0, ptr %5, align 8, !tbaa !3
  store ptr %1, ptr %6, align 8, !tbaa !3
  store i32 %2, ptr %7, align 4, !tbaa !8
  store ptr %3, ptr %8, align 8, !tbaa !3
  call void @llvm.lifetime.start.p0(i64 4, ptr %9) #8
  store i32 0, ptr %9, align 4, !tbaa !8
  br label %11

11:                                               ; preds = %37, %4
  %12 = load i32, ptr %9, align 4, !tbaa !8
  %13 = load i32, ptr %7, align 4, !tbaa !8
  %14 = icmp slt i32 %12, %13
  br i1 %14, label %15, label %40

15:                                               ; preds = %11
  call void @llvm.lifetime.start.p0(i64 4, ptr %10) #8
  %16 = load ptr, ptr %8, align 8, !tbaa !3
  %17 = load i32, ptr %9, align 4, !tbaa !8
  %18 = sub nsw i32 %17, 1
  %19 = sext i32 %18 to i64
  %20 = getelementptr inbounds i32, ptr %16, i64 %19
  %21 = load ptr, ptr %6, align 8, !tbaa !3
  %22 = load i32, ptr %9, align 4, !tbaa !8
  %23 = sext i32 %22 to i64
  %24 = getelementptr inbounds i32, ptr %21, i64 %23
  %25 = call i32 @VP8LPredictor4_C(ptr noundef %20, ptr noundef %24)
  store i32 %25, ptr %10, align 4, !tbaa !8
  %26 = load ptr, ptr %5, align 8, !tbaa !3
  %27 = load i32, ptr %9, align 4, !tbaa !8
  %28 = sext i32 %27 to i64
  %29 = getelementptr inbounds i32, ptr %26, i64 %28
  %30 = load i32, ptr %29, align 4, !tbaa !8
  %31 = load i32, ptr %10, align 4, !tbaa !8
  %32 = call i32 @VP8LAddPixels(i32 noundef %30, i32 noundef %31)
  %33 = load ptr, ptr %8, align 8, !tbaa !3
  %34 = load i32, ptr %9, align 4, !tbaa !8
  %35 = sext i32 %34 to i64
  %36 = getelementptr inbounds i32, ptr %33, i64 %35
  store i32 %32, ptr %36, align 4, !tbaa !8
  call void @llvm.lifetime.end.p0(i64 4, ptr %10) #8
  br label %37

37:                                               ; preds = %15
  %38 = load i32, ptr %9, align 4, !tbaa !8
  %39 = add nsw i32 %38, 1
  store i32 %39, ptr %9, align 4, !tbaa !8
  br label %11, !llvm.loop !47

40:                                               ; preds = %11
  call void @llvm.lifetime.end.p0(i64 4, ptr %9) #8
  ret void
}